; ModuleID = '46/2669.c'
source_filename = "46/2669.c"
target datalayout = "e-m:e-p270:32:32-p271:32:32-p272:64:64-i64:64-f80:128-n8:16:32:64-S128"
target triple = "x86_64-pc-linux-gnu"

@.str = private unnamed_addr constant [6 x i8] c"%d %d\00", align 1
@.str.1 = private unnamed_addr constant [3 x i8] c"%d\00", align 1
@.str.2 = private unnamed_addr constant [4 x i8] c"%d\0A\00", align 1

; Function Attrs: noinline nounwind uwtable
define dso_local i32 @main() #0 {
  %1 = alloca i32, align 4
  %2 = alloca [100 x [100 x i32]], align 16
  %3 = alloca i32, align 4
  %4 = alloca i32, align 4
  %5 = alloca i32, align 4
  %6 = alloca i32, align 4
  %7 = alloca i32, align 4
  %8 = alloca i32, align 4
  %9 = alloca i32, align 4
  %10 = alloca i32, align 4
  store i32 0, i32* %1, align 4
  %11 = bitcast [100 x [100 x i32]]* %2 to i8*
  call void @llvm.memset.p0i8.i64(i8* align 16 %11, i8 0, i64 40000, i1 false)
  %12 = call i32 (i8*, ...) @__isoc99_scanf(i8* getelementptr inbounds ([6 x i8], [6 x i8]* @.str, i64 0, i64 0), i32* %3, i32* %4)
  store i32 0, i32* %9, align 4
  br label %13

13:                                               ; preds = %34, %0
  %14 = load i32, i32* %9, align 4
  %15 = load i32, i32* %3, align 4
  %16 = icmp slt i32 %14, %15
  br i1 %16, label %17, label %37

17:                                               ; preds = %13
  store i32 0, i32* %10, align 4
  br label %18

18:                                               ; preds = %30, %17
  %19 = load i32, i32* %10, align 4
  %20 = load i32, i32* %4, align 4
  %21 = icmp slt i32 %19, %20
  br i1 %21, label %22, label %33

22:                                               ; preds = %18
  %23 = load i32, i32* %9, align 4
  %24 = sext i32 %23 to i64
  %25 = getelementptr inbounds [100 x [100 x i32]], [100 x [100 x i32]]* %2, i64 0, i64 %24
  %26 = load i32, i32* %10, align 4
  %27 = sext i32 %26 to i64
  %28 = getelementptr inbounds [100 x i32], [100 x i32]* %25, i64 0, i64 %27
  %29 = call i32 (i8*, ...) @__isoc99_scanf(i8* getelementptr inbounds ([3 x i8], [3 x i8]* @.str.1, i64 0, i64 0), i32* %28)
  br label %30

30:                                               ; preds = %22
  %31 = load i32, i32* %10, align 4
  %32 = add nsw i32 %31, 1
  store i32 %32, i32* %10, align 4
  br label %18

33:                                               ; preds = %18
  br label %34

34:                                               ; preds = %33
  %35 = load i32, i32* %9, align 4
  %36 = add nsw i32 %35, 1
  store i32 %36, i32* %9, align 4
  br label %13

37:                                               ; preds = %13
  store i32 0, i32* %9, align 4
  br label %38

38:                                               ; preds = %154, %37
  %39 = load i32, i32* %9, align 4
  %40 = load i32, i32* %3, align 4
  %41 = add nsw i32 %40, 1
  %42 = sdiv i32 %41, 2
  %43 = icmp sge i32 %39, %42
  br i1 %43, label %44, label %45

44:                                               ; preds = %38
  br label %157

45:                                               ; preds = %38
  %46 = load i32, i32* %9, align 4
  %47 = load i32, i32* %4, align 4
  %48 = add nsw i32 %47, 1
  %49 = sdiv i32 %48, 2
  %50 = icmp sge i32 %46, %49
  br i1 %50, label %51, label %52

51:                                               ; preds = %45
  br label %157

52:                                               ; preds = %45
  %53 = load i32, i32* %9, align 4
  store i32 %53, i32* %5, align 4
  %54 = load i32, i32* %3, align 4
  %55 = load i32, i32* %9, align 4
  %56 = sub nsw i32 %54, %55
  %57 = sub nsw i32 %56, 1
  store i32 %57, i32* %6, align 4
  %58 = load i32, i32* %9, align 4
  store i32 %58, i32* %7, align 4
  %59 = load i32, i32* %4, align 4
  %60 = load i32, i32* %9, align 4
  %61 = sub nsw i32 %59, %60
  %62 = sub nsw i32 %61, 1
  store i32 %62, i32* %8, align 4
  %63 = load i32, i32* %7, align 4
  store i32 %63, i32* %7, align 4
  br label %64

64:                                               ; preds = %77, %52
  %65 = load i32, i32* %7, align 4
  %66 = load i32, i32* %8, align 4
  %67 = icmp sle i32 %65, %66
  br i1 %67, label %68, label %80

68:                                               ; preds = %64
  %69 = load i32, i32* %5, align 4
  %70 = sext i32 %69 to i64
  %71 = getelementptr inbounds [100 x [100 x i32]], [100 x [100 x i32]]* %2, i64 0, i64 %70
  %72 = load i32, i32* %7, align 4
  %73 = sext i32 %72 to i64
  %74 = getelementptr inbounds [100 x i32], [100 x i32]* %71, i64 0, i64 %73
  %75 = load i32, i32* %74, align 4
  %76 = call i32 (i8*, ...) @printf(i8* getelementptr inbounds ([4 x i8], [4 x i8]* @.str.2, i64 0, i64 0), i32 %75)
  br label %77

77:                                               ; preds = %68
  %78 = load i32, i32* %7, align 4
  %79 = add nsw i32 %78, 1
  store i32 %79, i32* %7, align 4
  br label %64

80:                                               ; preds = %64
  %81 = load i32, i32* %9, align 4
  store i32 %81, i32* %7, align 4
  %82 = load i32, i32* %5, align 4
  %83 = add nsw i32 %82, 1
  store i32 %83, i32* %5, align 4
  br label %84

84:                                               ; preds = %97, %80
  %85 = load i32, i32* %5, align 4
  %86 = load i32, i32* %6, align 4
  %87 = icmp sle i32 %85, %86
  br i1 %87, label %88, label %100

88:                                               ; preds = %84
  %89 = load i32, i32* %5, align 4
  %90 = sext i32 %89 to i64
  %91 = getelementptr inbounds [100 x [100 x i32]], [100 x [100 x i32]]* %2, i64 0, i64 %90
  %92 = load i32, i32* %8, align 4
  %93 = sext i32 %92 to i64
  %94 = getelementptr inbounds [100 x i32], [100 x i32]* %91, i64 0, i64 %93
  %95 = load i32, i32* %94, align 4
  %96 = call i32 (i8*, ...) @printf(i8* getelementptr inbounds ([4 x i8], [4 x i8]* @.str.2, i64 0, i64 0), i32 %95)
  br label %97

97:                                               ; preds = %88
  %98 = load i32, i32* %5, align 4
  %99 = add nsw i32 %98, 1
  store i32 %99, i32* %5, align 4
  br label %84

100:                                              ; preds = %84
  %101 = load i32, i32* %9, align 4
  store i32 %101, i32* %5, align 4
  %102 = load i32, i32* %5, align 4
  %103 = load i32, i32* %6, align 4
  %104 = icmp slt i32 %102, %103
  br i1 %104, label %105, label %125

105:                                              ; preds = %100
  %106 = load i32, i32* %8, align 4
  %107 = sub nsw i32 %106, 1
  store i32 %107, i32* %8, align 4
  br label %108

108:                                              ; preds = %121, %105
  %109 = load i32, i32* %8, align 4
  %110 = load i32, i32* %7, align 4
  %111 = icmp sge i32 %109, %110
  br i1 %111, label %112, label %124

112:                                              ; preds = %108
  %113 = load i32, i32* %6, align 4
  %114 = sext i32 %113 to i64
  %115 = getelementptr inbounds [100 x [100 x i32]], [100 x [100 x i32]]* %2, i64 0, i64 %114
  %116 = load i32, i32* %8, align 4
  %117 = sext i32 %116 to i64
  %118 = getelementptr inbounds [100 x i32], [100 x i32]* %115, i64 0, i64 %117
  %119 = load i32, i32* %118, align 4
  %120 = call i32 (i8*, ...) @printf(i8* getelementptr inbounds ([4 x i8], [4 x i8]* @.str.2, i64 0, i64 0), i32 %119)
  br label %121

121:                                              ; preds = %112
  %122 = load i32, i32* %8, align 4
  %123 = add nsw i32 %122, -1
  store i32 %123, i32* %8, align 4
  br label %108

124:                                              ; preds = %108
  br label %125

125:                                              ; preds = %124, %100
  %126 = load i32, i32* %4, align 4
  %127 = sub nsw i32 %126, 1
  %128 = load i32, i32* %9, align 4
  %129 = sub nsw i32 %127, %128
  store i32 %129, i32* %8, align 4
  %130 = load i32, i32* %7, align 4
  %131 = load i32, i32* %8, align 4
  %132 = icmp slt i32 %130, %131
  br i1 %132, label %133, label %153

133:                                              ; preds = %125
  %134 = load i32, i32* %6, align 4
  %135 = sub nsw i32 %134, 1
  store i32 %135, i32* %6, align 4
  br label %136

136:                                              ; preds = %149, %133
  %137 = load i32, i32* %6, align 4
  %138 = load i32, i32* %5, align 4
  %139 = icmp sgt i32 %137, %138
  br i1 %139, label %140, label %152

140:                                              ; preds = %136
  %141 = load i32, i32* %6, align 4
  %142 = sext i32 %141 to i64
  %143 = getelementptr inbounds [100 x [100 x i32]], [100 x [100 x i32]]* %2, i64 0, i64 %142
  %144 = load i32, i32* %7, align 4
  %145 = sext i32 %144 to i64
  %146 = getelementptr inbounds [100 x i32], [100 x i32]* %143, i64 0, i64 %145
  %147 = load i32, i32* %146, align 4
  %148 = call i32 (i8*, ...) @printf(i8* getelementptr inbounds ([4 x i8], [4 x i8]* @.str.2, i64 0, i64 0), i32 %147)
  br label %149

149:                                              ; preds = %140
  %150 = load i32, i32* %6, align 4
  %151 = add nsw i32 %150, -1
  store i32 %151, i32* %6, align 4
  br label %136

152:                                              ; preds = %136
  br label %153

153:                                              ; preds = %152, %125
  br label %154

154:                                              ; preds = %153
  %155 = load i32, i32* %9, align 4
  %156 = add nsw i32 %155, 1
  store i32 %156, i32* %9, align 4
  br label %38

157:                                              ; preds = %51, %44
  ret i32 0
}

; Function Attrs: argmemonly nounwind willreturn
declare void @llvm.memset.p0i8.i64(i8* nocapture writeonly, i8, i64, i1 immarg) #1

declare dso_local i32 @__isoc99_scanf(i8*, ...) #2

declare dso_local i32 @printf(i8*, ...) #2


!llvm.module.flags = !{!0}
!llvm.ident = !{!1}

!0 = !{i32 1, !"wchar_size", i32 4}
!1 = !{!"clang version 10.0.0-4ubuntu1 "}
